target datalayout = "e-m:e-p270:32:32-p271:32:32-p272:64:64-i64:64-i128:128-f80:128-n8:16:32:64-S128"
target triple = "x86_64-pc-linux-gnu"

%struct.QemuMutex = type { %union.pthread_mutex_t, i8 }
%union.pthread_mutex_t = type { %struct.__pthread_mutex_s }
%struct.__pthread_mutex_s = type { i32, i32, i32, i32, i32, i16, i16, %struct.__pthread_internal_list }
%struct.__pthread_internal_list = type { ptr, ptr }
%struct.BlockJob = type { %struct.Job, i32, i64, %struct.RateLimit, ptr, %struct.Notifier, %struct.Notifier, %struct.Notifier, %struct.Notifier, %struct.Notifier, ptr }
%struct.Job = type { ptr, ptr, ptr, i8, i8, ptr, ptr, %struct.ProgressMeter, ptr, i32, i32, %struct.QEMUTimer, i32, i8, i8, i8, i8, i8, i8, i32, ptr, %struct.NotifierList, %struct.NotifierList, %struct.NotifierList, %struct.NotifierList, %struct.NotifierList, %struct.anon.0, ptr, %struct.anon.1 }
%struct.ProgressMeter = type { i64, i64, %struct.QemuMutex }
%struct.QEMUTimer = type { i64, ptr, ptr, ptr, ptr, i32, i32 }
%struct.NotifierList = type { %struct.anon }
%struct.anon = type { ptr }
%struct.anon.0 = type { ptr, ptr }
%struct.anon.1 = type { ptr, ptr }
%struct.RateLimit = type { %struct.QemuMutex, i64, i64, i64, i64, i64 }
%struct.Notifier = type { ptr, %struct.anon.2 }
%struct.anon.2 = type { ptr, ptr }
%struct.BlockJobDriver = type { %struct.JobDriver, ptr, ptr, ptr, ptr, ptr }
%struct.JobDriver = type { i64, i32, ptr, ptr, ptr, ptr, ptr, ptr, ptr, ptr, ptr, ptr, ptr }

@.str = private unnamed_addr constant [22 x i8] c"qemu_in_main_thread()\00", align 1
@.str.1 = private unnamed_addr constant [19 x i8] c"../qemu/blockjob.c\00", align 1
@__PRETTY_FUNCTION__.block_job_change_locked = private unnamed_addr constant [76 x i8] c"void block_job_change_locked(BlockJob *, BlockJobChangeOptions *, Error **)\00", align 1
@__func__.block_job_change_locked = private unnamed_addr constant [24 x i8] c"block_job_change_locked\00", align 1
@.str.5 = private unnamed_addr constant [33 x i8] c"Job type does not support change\00", align 1

; Function Attrs: nounwind sspstrong uwtable
define dso_local ptr @block_job_driver(ptr noundef %0) #0 {
  %2 = alloca ptr, align 8
  %3 = alloca ptr, align 8
  %4 = alloca ptr, align 8
  store ptr %0, ptr %2, align 8
  call void @llvm.lifetime.start.p0(i64 8, ptr %3) #12
  %5 = load ptr, ptr %2, align 8
  %6 = getelementptr inbounds nuw %struct.BlockJob, ptr %5, i32 0, i32 0
  %7 = getelementptr inbounds nuw %struct.Job, ptr %6, i32 0, i32 1
  %8 = load ptr, ptr %7, align 8
  store ptr %8, ptr %3, align 8
  %9 = load ptr, ptr %3, align 8
  %10 = getelementptr inbounds i8, ptr %9, i64 0
  store ptr %10, ptr %4, align 8
  call void @llvm.lifetime.end.p0(i64 8, ptr %3) #12
  %11 = load ptr, ptr %4, align 8
  ret ptr %11
}

; Function Attrs: nounwind sspstrong uwtable
define dso_local void @block_job_change_locked(ptr noundef %0, ptr noundef %1, ptr noundef %2) #0 {
  %4 = alloca ptr, align 8
  %5 = alloca ptr, align 8
  %6 = alloca ptr, align 8
  %7 = alloca ptr, align 8
  %8 = alloca i32, align 4
  store ptr %0, ptr %4, align 8
  store ptr %1, ptr %5, align 8
  store ptr %2, ptr %6, align 8
  call void @llvm.lifetime.start.p0(i64 8, ptr %7) #12
  %9 = load ptr, ptr %4, align 8
  %10 = call ptr @block_job_driver(ptr noundef %9)
  store ptr %10, ptr %7, align 8
  br label %11

11:                                               ; preds = %3
  %12 = call zeroext i1 @qemu_in_main_thread()
  br i1 %12, label %13, label %14

13:                                               ; preds = %11
  br label %15

14:                                               ; preds = %11
  call void @__assert_fail(ptr noundef @.str, ptr noundef @.str.1, i32 noundef 320, ptr noundef @__PRETTY_FUNCTION__.block_job_change_locked) #13
  unreachable

15:                                               ; preds = %13
  br label %16

16:                                               ; preds = %15
  br label %17

17:                                               ; preds = %16
  %18 = load ptr, ptr %4, align 8
  %19 = getelementptr inbounds nuw %struct.BlockJob, ptr %18, i32 0, i32 0
  %20 = load ptr, ptr %6, align 8
  %21 = call i32 @job_apply_verb_locked(ptr noundef %19, i32 noundef 7, ptr noundef %20)
  %22 = icmp ne i32 %21, 0
  br i1 %22, label %23, label %24

23:                                               ; preds = %17
  store i32 1, ptr %8, align 4
  br label %39

24:                                               ; preds = %17
  %25 = load ptr, ptr %7, align 8
  %26 = getelementptr inbounds nuw %struct.BlockJobDriver, ptr %25, i32 0, i32 4
  %27 = load ptr, ptr %26, align 8
  %28 = icmp ne ptr %27, null
  br i1 %28, label %29, label %36

29:                                               ; preds = %24
  call void @job_unlock()
  %30 = load ptr, ptr %7, align 8
  %31 = getelementptr inbounds nuw %struct.BlockJobDriver, ptr %30, i32 0, i32 4
  %32 = load ptr, ptr %31, align 8
  %33 = load ptr, ptr %4, align 8
  %34 = load ptr, ptr %5, align 8
  %35 = load ptr, ptr %6, align 8
  call void %32(ptr noundef %33, ptr noundef %34, ptr noundef %35)
  call void @job_lock()
  br label %38

36:                                               ; preds = %24
  %37 = load ptr, ptr %6, align 8
  call void (ptr, ptr, i32, ptr, ptr, ...) @error_setg_internal(ptr noundef %37, ptr noundef @.str.1, i32 noundef 331, ptr noundef @__func__.block_job_change_locked, ptr noundef @.str.5)
  br label %38

38:                                               ; preds = %36, %29
  store i32 0, ptr %8, align 4
  br label %39

39:                                               ; preds = %38, %23
  call void @llvm.lifetime.end.p0(i64 8, ptr %7) #12
  %40 = load i32, ptr %8, align 4
  switch i32 %40, label %42 [
    i32 0, label %41
    i32 1, label %41
  ]

41:                                               ; preds = %39, %39
  ret void

42:                                               ; preds = %39
  unreachable
}