; Function Attrs: nounwind sspstrong uwtable
define dso_local void @block_job_change_locked(ptr noundef %0, ptr noundef %1, ptr noundef %2) local_unnamed_addr #0 {
  %4 = getelementptr inbounds nuw i8, ptr %0, i64 8
  %5 = load ptr, ptr %4, align 8
  %6 = tail call zeroext i1 @qemu_in_main_thread() #8
  br i1 %6, label %8, label %7

7:                                                ; preds = %3
  tail call void @__assert_fail(ptr noundef nonnull @.str, ptr noundef nonnull @.str.1, i32 noundef 320, ptr noundef nonnull @__PRETTY_FUNCTION__.block_job_change_locked) #9
  unreachable

8:                                                ; preds = %3
  %9 = tail call i32 @job_apply_verb_locked(ptr noundef nonnull %0, i32 noundef 7, ptr noundef %2) #8
  %.not = icmp eq i32 %9, 0
  br i1 %.not, label %10, label %16

10:                                               ; preds = %8
  %11 = getelementptr inbounds nuw i8, ptr %5, i64 128
  %12 = load ptr, ptr %11, align 8
  %.not9 = icmp eq ptr %12, null
  br i1 %.not9, label %15, label %13

13:                                               ; preds = %10
  tail call void @job_unlock() #8
  %14 = load ptr, ptr %11, align 8
  tail call void %14(ptr noundef nonnull %0, ptr noundef %1, ptr noundef %2) #8
  tail call void @job_lock() #8
  br label %16

15:                                               ; preds = %10
  tail call void (ptr, ptr, i32, ptr, ptr, ...) @error_setg_internal(ptr noundef %2, ptr noundef nonnull @.str.1, i32 noundef 331, ptr noundef nonnull @__func__.block_job_change_locked, ptr noundef nonnull @.str.5) #8
  br label %16

16:                                               ; preds = %13, %15, %8
  ret void
}